target datalayout = "e-m:e-p270:32:32-p271:32:32-p272:64:64-i64:64-i128:128-f80:128-n8:16:32:64-S128"
target triple = "x86_64-pc-linux-gnu"

%"struct.icu_77::LSR" = type <{ ptr, ptr, ptr, ptr, i32, i32, i32, [4 x i8] }>
%"class.icu_77::StringPiece" = type <{ ptr, i32, [4 x i8] }>

@.str = private unnamed_addr constant [1 x i8] zeroinitializer, align 1
@.str.7 = private unnamed_addr constant [4 x i8] c"und\00", align 1

; Function Attrs: mustprogress nounwind uwtable
define linkonce_odr void @_ZN6icu_7711StringPieceC2EPKci(ptr noundef nonnull align 8 dereferenceable(12) %0, ptr noundef %1, i32 noundef %2) unnamed_addr #0 comdat align 2 {
  %4 = alloca ptr, align 8
  %5 = alloca ptr, align 8
  %6 = alloca i32, align 4
  store ptr %0, ptr %4, align 8, !tbaa !132
  store ptr %1, ptr %5, align 8, !tbaa !17
  store i32 %2, ptr %6, align 4, !tbaa !14
  %7 = load ptr, ptr %4, align 8
  %8 = getelementptr inbounds nuw %"class.icu_77::StringPiece", ptr %7, i32 0, i32 0
  %9 = load ptr, ptr %5, align 8, !tbaa !17
  store ptr %9, ptr %8, align 8, !tbaa !134
  %10 = getelementptr inbounds nuw %"class.icu_77::StringPiece", ptr %7, i32 0, i32 1
  %11 = load i32, ptr %6, align 4, !tbaa !14
  store i32 %11, ptr %10, align 8, !tbaa !136
  ret void
}

; Function Attrs: mustprogress nounwind uwtable
define linkonce_odr void @_ZN6icu_773LSRC2Ev(ptr noundef nonnull align 8 dereferenceable(48) %0) unnamed_addr #0 comdat align 2 {
  %2 = alloca ptr, align 8
  store ptr %0, ptr %2, align 8, !tbaa !35
  %3 = load ptr, ptr %2, align 8
  %4 = getelementptr inbounds nuw %"struct.icu_77::LSR", ptr %3, i32 0, i32 0
  store ptr @.str.7, ptr %4, align 8, !tbaa !120
  %5 = getelementptr inbounds nuw %"struct.icu_77::LSR", ptr %3, i32 0, i32 1
  store ptr @.str, ptr %5, align 8, !tbaa !121
  %6 = getelementptr inbounds nuw %"struct.icu_77::LSR", ptr %3, i32 0, i32 2
  store ptr @.str, ptr %6, align 8, !tbaa !122
  %7 = getelementptr inbounds nuw %"struct.icu_77::LSR", ptr %3, i32 0, i32 3
  store ptr null, ptr %7, align 8, !tbaa !36
  %8 = getelementptr inbounds nuw %"struct.icu_77::LSR", ptr %3, i32 0, i32 4
  store i32 0, ptr %8, align 8, !tbaa !123
  %9 = getelementptr inbounds nuw %"struct.icu_77::LSR", ptr %3, i32 0, i32 5
  store i32 0, ptr %9, align 4, !tbaa !124
  %10 = getelementptr inbounds nuw %"struct.icu_77::LSR", ptr %3, i32 0, i32 6
  store i32 0, ptr %10, align 8, !tbaa !125
  ret void
}

; Function Attrs: inlinehint mustprogress nounwind uwtable
define internal noundef signext i8 @_ZL9U_FAILURE10UErrorCode(i32 noundef %0) #2 {
  %2 = alloca i32, align 4
  store i32 %0, ptr %2, align 4, !tbaa !15
  %3 = load i32, ptr %2, align 4, !tbaa !15
  %4 = icmp sgt i32 %3, 0
  %5 = zext i1 %4 to i8
  ret i8 %5
}

; Function Attrs: mustprogress uwtable
define void @_ZNK6icu_7713LikelySubtags8maximizeEPKcS2_S2_bR10UErrorCode(ptr dead_on_unwind noalias writable sret(%"struct.icu_77::LSR") align 8 %0, ptr noundef nonnull align 8 dereferenceable(352) %1, ptr noundef %2, ptr noundef %3, ptr noundef %4, i1 noundef zeroext %5, ptr noundef nonnull align 4 dereferenceable(4) %6) #1 align 2 {
  %8 = alloca ptr, align 8
  %9 = alloca ptr, align 8
  %10 = alloca ptr, align 8
  %11 = alloca ptr, align 8
  %12 = alloca ptr, align 8
  %13 = alloca i8, align 1
  %14 = alloca ptr, align 8
  %15 = alloca %"class.icu_77::StringPiece", align 8
  %16 = alloca %"class.icu_77::StringPiece", align 8
  %17 = alloca %"class.icu_77::StringPiece", align 8
  store ptr %0, ptr %8, align 8
  store ptr %1, ptr %9, align 8, !tbaa !38
  store ptr %2, ptr %10, align 8, !tbaa !17
  store ptr %3, ptr %11, align 8, !tbaa !17
  store ptr %4, ptr %12, align 8, !tbaa !17
  %18 = zext i1 %5 to i8
  store i8 %18, ptr %13, align 1, !tbaa !117
  store ptr %6, ptr %14, align 8, !tbaa !22
  %19 = load ptr, ptr %9, align 8
  %20 = load ptr, ptr %14, align 8, !tbaa !22
  %21 = load i32, ptr %20, align 4, !tbaa !15
  %22 = call noundef signext i8 @_ZL9U_FAILURE10UErrorCode(i32 noundef %21)
  %23 = icmp ne i8 %22, 0
  br i1 %23, label %24, label %25

24:                                               ; preds = %7
  call void @_ZN6icu_773LSRC2Ev(ptr noundef nonnull align 8 dereferenceable(48) %0)
  br label %49

25:                                               ; preds = %7
  %26 = load ptr, ptr %10, align 8, !tbaa !17
  %27 = load ptr, ptr %10, align 8, !tbaa !17
  %28 = call i64 @strlen(ptr noundef %27) #16
  %29 = trunc i64 %28 to i32
  call void @_ZN6icu_7711StringPieceC2EPKci(ptr noundef nonnull align 8 dereferenceable(12) %15, ptr noundef %26, i32 noundef %29)
  %30 = load ptr, ptr %11, align 8, !tbaa !17
  %31 = load ptr, ptr %11, align 8, !tbaa !17
  %32 = call i64 @strlen(ptr noundef %31) #16
  %33 = trunc i64 %32 to i32
  call void @_ZN6icu_7711StringPieceC2EPKci(ptr noundef nonnull align 8 dereferenceable(12) %16, ptr noundef %30, i32 noundef %33)
  %34 = load ptr, ptr %12, align 8, !tbaa !17
  %35 = load ptr, ptr %12, align 8, !tbaa !17
  %36 = call i64 @strlen(ptr noundef %35) #16
  %37 = trunc i64 %36 to i32
  call void @_ZN6icu_7711StringPieceC2EPKci(ptr noundef nonnull align 8 dereferenceable(12) %17, ptr noundef %34, i32 noundef %37)
  %38 = load i8, ptr %13, align 1, !tbaa !117, !range !118, !noundef !119
  %39 = trunc i8 %38 to i1
  %40 = load ptr, ptr %14, align 8, !tbaa !22
  %41 = getelementptr inbounds nuw { ptr, i32 }, ptr %15, i32 0, i32 0
  %42 = load ptr, ptr %41, align 8
  %43 = getelementptr inbounds nuw { ptr, i32 }, ptr %15, i32 0, i32 1
  %44 = load i32, ptr %43, align 8
  %45 = getelementptr inbounds nuw { ptr, i32 }, ptr %16, i32 0, i32 0
  %46 = load ptr, ptr %45, align 8
  %47 = getelementptr inbounds nuw { ptr, i32 }, ptr %16, i32 0, i32 1
  %48 = load i32, ptr %47, align 8
  call void @_ZNK6icu_7713LikelySubtags8maximizeENS_11StringPieceES1_S1_bR10UErrorCode(ptr dead_on_unwind writable sret(%"struct.icu_77::LSR") align 8 %0, ptr noundef nonnull align 8 dereferenceable(352) %19, ptr %42, i32 %44, ptr %46, i32 %48, ptr noundef byval(%"class.icu_77::StringPiece") align 8 %17, i1 noundef zeroext %39, ptr noundef nonnull align 4 dereferenceable(4) %40)
  br label %49

49:                                               ; preds = %25, %24
  ret void
}