; Function Attrs: mustprogress uwtable
define void @_ZNK6icu_7713LikelySubtags8maximizeEPKcS2_S2_bR10UErrorCode(ptr dead_on_unwind noalias writable sret(%"struct.icu_77::LSR") align 8 %0, ptr noundef nonnull readonly align 8 captures(none) dereferenceable(352) %1, ptr noundef %2, ptr noundef %3, ptr noundef %4, i1 noundef zeroext %5, ptr noundef nonnull align 4 dereferenceable(4) %6) local_unnamed_addr #1 align 2 {
  %8 = alloca %"class.icu_77::StringPiece", align 8
  %9 = load i32, ptr %6, align 4, !tbaa !13
  %10 = icmp slt i32 %9, 1
  br i1 %10, label %15, label %11

11:                                               ; preds = %7
  store ptr @.str.7, ptr %0, align 8, !tbaa !90
  %12 = getelementptr inbounds nuw i8, ptr %0, i64 8
  store ptr @.str, ptr %12, align 8, !tbaa !91
  %13 = getelementptr inbounds nuw i8, ptr %0, i64 16
  store ptr @.str, ptr %13, align 8, !tbaa !92
  %14 = getelementptr inbounds nuw i8, ptr %0, i64 24
  tail call void @llvm.memset.p0.i64(ptr noundef nonnull align 8 dereferenceable(20) %14, i8 0, i64 20, i1 false)
  br label %23

15:                                               ; preds = %7
  %16 = tail call i64 @strlen(ptr noundef nonnull dereferenceable(1) %2) #20
  %17 = trunc i64 %16 to i32
  %18 = tail call i64 @strlen(ptr noundef nonnull dereferenceable(1) %3) #20
  %19 = trunc i64 %18 to i32
  %20 = tail call i64 @strlen(ptr noundef nonnull dereferenceable(1) %4) #20
  %21 = trunc i64 %20 to i32
  store ptr %4, ptr %8, align 8, !tbaa !129
  %22 = getelementptr inbounds nuw i8, ptr %8, i64 8
  store i32 %21, ptr %22, align 8, !tbaa !131
  tail call void @_ZNK6icu_7713LikelySubtags8maximizeENS_11StringPieceES1_S1_bR10UErrorCode(ptr dead_on_unwind writable sret(%"struct.icu_77::LSR") align 8 %0, ptr noundef nonnull align 8 dereferenceable(352) %1, ptr nonnull %2, i32 %17, ptr nonnull %3, i32 %19, ptr noundef nonnull byval(%"class.icu_77::StringPiece") align 8 %8, i1 noundef zeroext %5, ptr noundef nonnull align 4 dereferenceable(4) %6)
  br label %23

23:                                               ; preds = %15, %11
  ret void
}